target datalayout = "e-m:e-p270:32:32-p271:32:32-p272:64:64-i64:64-i128:128-f80:128-n8:16:32:64-S128"
target triple = "x86_64-pc-linux-gnu"

%struct._lv_label_t = type { %struct._lv_obj_t, ptr, [4 x i8], i32, %struct._lv_draw_label_hint_t, i32, i32, %struct.lv_point_t, %struct.lv_point_t, i8 }
%struct._lv_obj_t = type { ptr, ptr, ptr, ptr, ptr, %struct.lv_area_t, i32, i16, i16 }
%struct.lv_area_t = type { i32, i32, i32, i32 }
%struct._lv_draw_label_hint_t = type { i32, i32, i32 }
%struct.lv_point_t = type { i32, i32 }

; Function Attrs: nounwind uwtable
define void @lv_label_set_recolor(ptr noundef %0, i1 noundef zeroext %1) #0 {
  %3 = alloca ptr, align 8
  %4 = alloca i8, align 1
  %5 = alloca ptr, align 8
  %6 = alloca i32, align 4
  store ptr %0, ptr %3, align 8, !tbaa !3
  %7 = zext i1 %1 to i8
  store i8 %7, ptr %4, align 1, !tbaa !33
  br label %8

8:                                                ; preds = %2
  br label %9

9:                                                ; preds = %8
  call void @llvm.lifetime.start.p0(i64 8, ptr %5) #6
  %10 = load ptr, ptr %3, align 8, !tbaa !3
  store ptr %10, ptr %5, align 8, !tbaa !3
  %11 = load ptr, ptr %5, align 8, !tbaa !3
  %12 = getelementptr inbounds nuw %struct._lv_label_t, ptr %11, i32 0, i32 9
  %13 = load i8, ptr %12, align 4
  %14 = lshr i8 %13, 4
  %15 = and i8 %14, 1
  %16 = zext i8 %15 to i32
  %17 = load i8, ptr %4, align 1, !tbaa !33, !range !37, !noundef !38
  %18 = trunc i8 %17 to i1
  %19 = zext i1 %18 to i32
  %20 = icmp eq i32 %16, %19
  br i1 %20, label %21, label %22

21:                                               ; preds = %9
  store i32 1, ptr %6, align 4
  br label %37

22:                                               ; preds = %9
  %23 = load i8, ptr %4, align 1, !tbaa !33, !range !37, !noundef !38
  %24 = trunc i8 %23 to i1
  %25 = zext i1 %24 to i32
  %26 = icmp eq i32 %25, 0
  %27 = select i1 %26, i32 0, i32 1
  %28 = trunc i32 %27 to i8
  %29 = load ptr, ptr %5, align 8, !tbaa !3
  %30 = getelementptr inbounds nuw %struct._lv_label_t, ptr %29, i32 0, i32 9
  %31 = load i8, ptr %30, align 4
  %32 = and i8 %28, 1
  %33 = shl i8 %32, 4
  %34 = and i8 %31, -17
  %35 = or i8 %34, %33
  store i8 %35, ptr %30, align 4
  %36 = load ptr, ptr %3, align 8, !tbaa !3
  call void @lv_label_refr_text(ptr noundef %36)
  store i32 0, ptr %6, align 4
  br label %37

37:                                               ; preds = %22, %21
  call void @llvm.lifetime.end.p0(i64 8, ptr %5) #6
  %38 = load i32, ptr %6, align 4
  switch i32 %38, label %40 [
    i32 0, label %39
    i32 1, label %39
  ]

39:                                               ; preds = %37, %37
  ret void

40:                                               ; preds = %37
  unreachable
}