; Function Attrs: nounwind uwtable
define void @lv_label_set_recolor(ptr noundef %0, i1 noundef zeroext %1) local_unnamed_addr #0 {
  %3 = getelementptr inbounds nuw i8, ptr %0, i64 116
  %4 = load i8, ptr %3, align 4
  %5 = and i8 %4, 16
  %6 = icmp eq i8 %5, 0
  %7 = xor i1 %1, %6
  br i1 %7, label %12, label %8

8:                                                ; preds = %2
  %9 = select i1 %1, i8 16, i8 0
  %10 = and i8 %4, -17
  %11 = or disjoint i8 %10, %9
  store i8 %11, ptr %3, align 4
  tail call fastcc void @lv_label_refr_text(ptr noundef nonnull %0)
  br label %12

12:                                               ; preds = %2, %8
  ret void
}